(dp0
S'LogRhythm'
p1
(lp2
S'LRAgentMF.sys'
p3
asS'SAFE-Cyberdefense'
p4
(lp5
S'SAFE-Agent.sys'
p6
asS'McAfee'
p7
(lp8
S'mfeaskm.sys'
p9
aS'mfencfilter.sys'
p10
aS'epdrv.sys'
p11
aS'mfencoas.sys'
p12
aS'mfehidk.sys'
p13
aS'swin.sys'
p14
aS'hdlpflt.sys'
p15
aS'mfprom.sys'
p16
aS'MfeEEFF.sys'
p17
asS'Malwarebytes'
p18
(lp19
S'mbamwatchdog.sys'
p20
asS'Bromium'
p21
(lp22
S'brfilter.sys'
p23
aS'BrCow_x_x_x_x.sys'
p24
asS'Raytheon Cyber Solutions'
p25
(lp26
S'eaw.sys'
p27
asS'CrowdStrike'
p28
(lp29
S'im.sys'
p30
aS'csagent.sys'
p31
asS'Cybereason'
p32
(lp33
S'CRExecPrev.sys'
p34
asS'Dell Secureworks'
p35
(lp36
S'groundling32.sys'
p37
aS'groundling64.sys'
p38
asS'Symantec'
p39
(lp40
S'pgpwdefs.sys'
p41
aS'GEProtection.sys'
p42
aS'diflt.sys'
p43
aS'sysMon.sys'
p44
aS'ssrfsf.sys'
p45
aS'emxdrv2.sys'
p46
aS'reghook.sys'
p47
aS'spbbcdrv.sys'
p48
aS'bhdrvx86.sys'
p49
aS'bhdrvx64.sys'
p50
aS'SISIPSFileFilter.sys'
p51
aS'symevent.sys'
p52
aS'vxfsrep.sys'
p53
aS'VirtFile.sys'
p54
aS'SymAFR.sys'
p55
aS'symefasi.sys'
p56
aS'symefa.sys'
p57
aS'symefa64.sys'
p58
aS'SymHsm.sys'
p59
aS'evmf.sys'
p60
aS'GEFCMP.sys'
p61
aS'VFSEnc.sys'
p62
aS'pgpfs.sys'
p63
aS'fencry.sys'
p64
aS'symrg.sys'
p65
asS'Hexis Cyber Solutions'
p66
(lp67
S'HexisFSMonitor.sys'
p68
asS'Carbon Black'
p69
(lp70
S'CarbonBlackK.sys'
p71
aS'carbonblackk.sys'
p72
asS'Avast'
p73
(lp74
S'aswSP.sys'
p75
asS'Comodo Security Solutions'
p76
(lp77
S'cfrmd.sys'
p78
aS'cmdccav.sys'
p79
aS'cmdguard.sys'
p80
aS'CmdMnEfs.sys'
p81
aS'MyDLPMF.sys'
p82
asS'Kaspersky'
p83
(lp84
S'klifks.sys'
p85
aS'klifaa.sys'
p86
aS'Klifsm.sys'
p87
asS'BitDefender'
p88
(lp89
S'edrsensor.sys'
p90
aS'hbflt.sys'
p91
aS'bdsvm.sys'
p92
aS'gzflt.sys'
p93
aS'bddevflt.sys'
p94
aS'AVCKF.SYS'
p95
aS'Atc.sys'
p96
aS'AVC3.SYS'
p97
aS'TRUFOS.SYS'
p98
aS'BDSandBox.sys'
p99
asS'Webroot Software, Inc.'
p100
(lp101
S'ssfmonm.sys'
p102
asS'Endgame'
p103
(lp104
S'esensor.sys'
p105
asS'F-Secure'
p106
(lp107
S'fsgk.sys'
p108
aS'fsatp.sys'
p109
aS'fshs.sys'
p110
asS'Verdasys Inc.'
p111
(lp112
S'dgdmk.sys'
p113
asS'FireEye'
p114
(lp115
S'FeKern.sys'
p116
aS'WFP_MRT.sys'
p117
asS'Sophos'
p118
(lp119
S'SAVOnAccess.sys'
p120
aS'savonaccess.sys'
p121
aS'sld.sys'
p122
asS'AVG Technologies'
p123
(lp124
S'avgtpx86.sys'
p125
aS'avgtpx64.sys'
p126
asS'CJSC Returnil Software'
p127
(lp128
S'rvsavd.sys'
p129
asS'Trend Micro Inc'
p130
(lp131
S'TMUMS.sys'
p132
aS'hfileflt.sys'
p133
aS'TMUMH.sys'
p134
aS'AcDriver.sys'
p135
aS'SakFile.sys'
p136
aS'SakMFile.sys'
p137
aS'fileflt.sys'
p138
aS'TmEsFlt.sys'
p139
aS'tmevtmgr.sys'
p140
aS'TmFileEncDmk.sys'
p141
asS'Check Point Software Technologies'
p142
(lp143
S'epregflt.sys'
p144
aS'medlpflt.sys'
p145
aS'dsfa.sys'
p146
aS'cposfw.sys'
p147
asS'Cylance Inc.'
p148
(lp149
S'CyOptics.sys'
p150
aS'CyProtectDrv32.sys'
p151
aS'CyProtectDrv64.sys'
p152
asS'ESET'
p153
(lp154
S'edevmon.sys'
p155
aS'ehdrv.sys'
p156
asS'Cisco'
p157
(lp158
S'csacentr.sys'
p159
aS'csaenh.sys'
p160
aS'csareg.sys'
p161
aS'csascr.sys'
p162
aS'csaav.sys'
p163
aS'csaam.sys'
p164
asS'CyberArk Software'
p165
(lp166
S'CybKernelTracker.sys'
p167
asS'OPSWAT Inc'
p168
(lp169
S'libwamf.sys'
p170
asS'Panda Security'
p171
(lp172
S'PSINPROC.SYS'
p173
aS'PSINFILE.SYS'
p174
aS'amfsm.sys'
p175
aS'amm8660.sys'
p176
aS'amm6460.sys'
p177
asS'SentinelOne'
p178
(lp179
S'SentinelMonitor.sys'
p180
asS'Altiris (Symantec)'
p181
(lp182
S'atrsdfw.sys'
p183
asS'Absolute'
p184
(lp185
S'psepfilter.sys'
p186
aS'cve.sys'
p187
as.